target datalayout = "e-m:e-p270:32:32-p271:32:32-p272:64:64-i64:64-i128:128-f80:128-n8:16:32:64-S128"
target triple = "x86_64-pc-linux-gnu"

%struct.cloudManager = type { i32, i32, [4 x i32], i32, [4 x i32], i32, i32, i32, i32, i32, i32, i32, i32, i32, i32, ptr, ptr, ptr, ptr, ptr, ptr, ptr, [20 x ptr] }

@Kit_TruthToCloud5_rec.uVars = internal global [5 x i32] [i32 -1431655766, i32 -858993460, i32 -252645136, i32 -16711936, i32 -65536], align 16

; Function Attrs: nounwind uwtable
define ptr @Kit_TruthToCloud5_rec(ptr noundef %0, i32 noundef %1, i32 noundef %2, i32 noundef %3) #0 {
  %5 = alloca ptr, align 8
  %6 = alloca ptr, align 8
  %7 = alloca i32, align 4
  %8 = alloca i32, align 4
  %9 = alloca i32, align 4
  %10 = alloca ptr, align 8
  %11 = alloca ptr, align 8
  %12 = alloca i32, align 4
  %13 = alloca i32, align 4
  %14 = alloca i32, align 4
  store ptr %0, ptr %6, align 8, !tbaa !3
  store i32 %1, ptr %7, align 4, !tbaa !8
  store i32 %2, ptr %8, align 4, !tbaa !8
  store i32 %3, ptr %9, align 4, !tbaa !8
  call void @llvm.lifetime.start.p0(i64 8, ptr %10) #8
  call void @llvm.lifetime.start.p0(i64 8, ptr %11) #8
  call void @llvm.lifetime.start.p0(i64 4, ptr %12) #8
  call void @llvm.lifetime.start.p0(i64 4, ptr %13) #8
  %15 = load i32, ptr %7, align 4, !tbaa !8
  %16 = icmp eq i32 %15, 0
  br i1 %16, label %17, label %21

17:                                               ; preds = %4
  %18 = load ptr, ptr %6, align 8, !tbaa !3
  %19 = getelementptr inbounds nuw %struct.cloudManager, ptr %18, i32 0, i32 19
  %20 = load ptr, ptr %19, align 8, !tbaa !10
  store ptr %20, ptr %5, align 8
  store i32 1, ptr %14, align 4
  br label %139

21:                                               ; preds = %4
  %22 = load i32, ptr %7, align 4, !tbaa !8
  %23 = icmp eq i32 %22, -1
  br i1 %23, label %24, label %28

24:                                               ; preds = %21
  %25 = load ptr, ptr %6, align 8, !tbaa !3
  %26 = getelementptr inbounds nuw %struct.cloudManager, ptr %25, i32 0, i32 18
  %27 = load ptr, ptr %26, align 8, !tbaa !14
  store ptr %27, ptr %5, align 8
  store i32 1, ptr %14, align 4
  br label %139

28:                                               ; preds = %21
  %29 = load i32, ptr %8, align 4, !tbaa !8
  %30 = icmp eq i32 %29, 1
  br i1 %30, label %31, label %62

31:                                               ; preds = %28
  %32 = load i32, ptr %7, align 4, !tbaa !8
  %33 = load i32, ptr @Kit_TruthToCloud5_rec.uVars, align 16, !tbaa !8
  %34 = icmp eq i32 %32, %33
  br i1 %34, label %35, label %44

35:                                               ; preds = %31
  %36 = load ptr, ptr %6, align 8, !tbaa !3
  %37 = getelementptr inbounds nuw %struct.cloudManager, ptr %36, i32 0, i32 20
  %38 = load ptr, ptr %37, align 8, !tbaa !15
  %39 = load i32, ptr %9, align 4, !tbaa !8
  %40 = sub nsw i32 %39, 1
  %41 = sext i32 %40 to i64
  %42 = getelementptr inbounds ptr, ptr %38, i64 %41
  %43 = load ptr, ptr %42, align 8, !tbaa !16
  store ptr %43, ptr %5, align 8
  store i32 1, ptr %14, align 4
  br label %139

44:                                               ; preds = %31
  %45 = load i32, ptr %7, align 4, !tbaa !8
  %46 = load i32, ptr @Kit_TruthToCloud5_rec.uVars, align 16, !tbaa !8
  %47 = xor i32 %46, -1
  %48 = icmp eq i32 %45, %47
  br i1 %48, label %49, label %61

49:                                               ; preds = %44
  %50 = load ptr, ptr %6, align 8, !tbaa !3
  %51 = getelementptr inbounds nuw %struct.cloudManager, ptr %50, i32 0, i32 20
  %52 = load ptr, ptr %51, align 8, !tbaa !15
  %53 = load i32, ptr %9, align 4, !tbaa !8
  %54 = sub nsw i32 %53, 1
  %55 = sext i32 %54 to i64
  %56 = getelementptr inbounds ptr, ptr %52, i64 %55
  %57 = load ptr, ptr %56, align 8, !tbaa !16
  %58 = ptrtoint ptr %57 to i64
  %59 = xor i64 %58, 1
  %60 = inttoptr i64 %59 to ptr
  store ptr %60, ptr %5, align 8
  store i32 1, ptr %14, align 4
  br label %139

61:                                               ; preds = %44
  br label %62

62:                                               ; preds = %61, %28
  %63 = load i32, ptr %7, align 4, !tbaa !8
  %64 = load i32, ptr %8, align 4, !tbaa !8
  %65 = sub nsw i32 %64, 1
  %66 = sext i32 %65 to i64
  %67 = getelementptr inbounds [5 x i32], ptr @Kit_TruthToCloud5_rec.uVars, i64 0, i64 %66
  %68 = load i32, ptr %67, align 4, !tbaa !8
  %69 = xor i32 %68, -1
  %70 = and i32 %63, %69
  store i32 %70, ptr %12, align 4, !tbaa !8
  %71 = load i32, ptr %7, align 4, !tbaa !8
  %72 = load i32, ptr %8, align 4, !tbaa !8
  %73 = sub nsw i32 %72, 1
  %74 = sext i32 %73 to i64
  %75 = getelementptr inbounds [5 x i32], ptr @Kit_TruthToCloud5_rec.uVars, i64 0, i64 %74
  %76 = load i32, ptr %75, align 4, !tbaa !8
  %77 = and i32 %71, %76
  store i32 %77, ptr %13, align 4, !tbaa !8
  %78 = load i32, ptr %12, align 4, !tbaa !8
  %79 = load i32, ptr %8, align 4, !tbaa !8
  %80 = sub nsw i32 %79, 1
  %81 = shl i32 1, %80
  %82 = shl i32 %78, %81
  %83 = load i32, ptr %12, align 4, !tbaa !8
  %84 = or i32 %83, %82
  store i32 %84, ptr %12, align 4, !tbaa !8
  %85 = load i32, ptr %13, align 4, !tbaa !8
  %86 = load i32, ptr %8, align 4, !tbaa !8
  %87 = sub nsw i32 %86, 1
  %88 = shl i32 1, %87
  %89 = lshr i32 %85, %88
  %90 = load i32, ptr %13, align 4, !tbaa !8
  %91 = or i32 %90, %89
  store i32 %91, ptr %13, align 4, !tbaa !8
  %92 = load i32, ptr %12, align 4, !tbaa !8
  %93 = load i32, ptr %13, align 4, !tbaa !8
  %94 = icmp eq i32 %92, %93
  br i1 %94, label %95, label %102

95:                                               ; preds = %62
  %96 = load ptr, ptr %6, align 8, !tbaa !3
  %97 = load i32, ptr %12, align 4, !tbaa !8
  %98 = load i32, ptr %8, align 4, !tbaa !8
  %99 = sub nsw i32 %98, 1
  %100 = load i32, ptr %9, align 4, !tbaa !8
  %101 = call ptr @Kit_TruthToCloud5_rec(ptr noundef %96, i32 noundef %97, i32 noundef %99, i32 noundef %100)
  store ptr %101, ptr %5, align 8
  store i32 1, ptr %14, align 4
  br label %139

102:                                              ; preds = %62
  %103 = load i32, ptr %12, align 4, !tbaa !8
  %104 = load i32, ptr %13, align 4, !tbaa !8
  %105 = xor i32 %104, -1
  %106 = icmp eq i32 %103, %105
  br i1 %106, label %107, label %118

107:                                              ; preds = %102
  %108 = load ptr, ptr %6, align 8, !tbaa !3
  %109 = load i32, ptr %12, align 4, !tbaa !8
  %110 = load i32, ptr %8, align 4, !tbaa !8
  %111 = sub nsw i32 %110, 1
  %112 = load i32, ptr %9, align 4, !tbaa !8
  %113 = call ptr @Kit_TruthToCloud5_rec(ptr noundef %108, i32 noundef %109, i32 noundef %111, i32 noundef %112)
  store ptr %113, ptr %10, align 8, !tbaa !16
  %114 = load ptr, ptr %10, align 8, !tbaa !16
  %115 = ptrtoint ptr %114 to i64
  %116 = xor i64 %115, 1
  %117 = inttoptr i64 %116 to ptr
  store ptr %117, ptr %11, align 8, !tbaa !16
  br label %131

118:                                              ; preds = %102
  %119 = load ptr, ptr %6, align 8, !tbaa !3
  %120 = load i32, ptr %12, align 4, !tbaa !8
  %121 = load i32, ptr %8, align 4, !tbaa !8
  %122 = sub nsw i32 %121, 1
  %123 = load i32, ptr %9, align 4, !tbaa !8
  %124 = call ptr @Kit_TruthToCloud5_rec(ptr noundef %119, i32 noundef %120, i32 noundef %122, i32 noundef %123)
  store ptr %124, ptr %10, align 8, !tbaa !16
  %125 = load ptr, ptr %6, align 8, !tbaa !3
  %126 = load i32, ptr %13, align 4, !tbaa !8
  %127 = load i32, ptr %8, align 4, !tbaa !8
  %128 = sub nsw i32 %127, 1
  %129 = load i32, ptr %9, align 4, !tbaa !8
  %130 = call ptr @Kit_TruthToCloud5_rec(ptr noundef %125, i32 noundef %126, i32 noundef %128, i32 noundef %129)
  store ptr %130, ptr %11, align 8, !tbaa !16
  br label %131

131:                                              ; preds = %118, %107
  %132 = load ptr, ptr %6, align 8, !tbaa !3
  %133 = load i32, ptr %9, align 4, !tbaa !8
  %134 = load i32, ptr %8, align 4, !tbaa !8
  %135 = sub nsw i32 %133, %134
  %136 = load ptr, ptr %11, align 8, !tbaa !16
  %137 = load ptr, ptr %10, align 8, !tbaa !16
  %138 = call ptr @Cloud_MakeNode(ptr noundef %132, i32 noundef %135, ptr noundef %136, ptr noundef %137)
  store ptr %138, ptr %5, align 8
  store i32 1, ptr %14, align 4
  br label %139

139:                                              ; preds = %131, %95, %49, %35, %24, %17
  call void @llvm.lifetime.end.p0(i64 4, ptr %13) #8
  call void @llvm.lifetime.end.p0(i64 4, ptr %12) #8
  call void @llvm.lifetime.end.p0(i64 8, ptr %11) #8
  call void @llvm.lifetime.end.p0(i64 8, ptr %10) #8
  %140 = load ptr, ptr %5, align 8
  ret ptr %140
}