; Function Attrs: nounwind uwtable
define ptr @Kit_TruthToCloud5_rec(ptr noundef %0, i32 noundef %1, i32 noundef %2, i32 noundef %3) local_unnamed_addr #0 {
  %5 = sext i32 %2 to i64
  br label %tailrecurse

tailrecurse:                                      ; preds = %32, %4
  %indvars.iv = phi i64 [ %indvars.iv.next, %32 ], [ %5, %4 ]
  %.tr53 = phi i32 [ %41, %32 ], [ %1, %4 ]
  switch i32 %.tr53, label %12 [
    i32 0, label %6
    i32 -1, label %9
  ]

6:                                                ; preds = %tailrecurse
  %7 = getelementptr inbounds nuw i8, ptr %0, i64 120
  %8 = load ptr, ptr %7, align 8, !tbaa !3
  br label %59

9:                                                ; preds = %tailrecurse
  %10 = getelementptr inbounds nuw i8, ptr %0, i64 112
  %11 = load ptr, ptr %10, align 8, !tbaa !11
  br label %59

12:                                               ; preds = %tailrecurse
  %13 = icmp eq i64 %indvars.iv, 1
  br i1 %13, label %14, label %32

14:                                               ; preds = %12
  switch i32 %.tr53, label %32 [
    i32 -1431655766, label %15
    i32 1431655765, label %22
  ]

15:                                               ; preds = %14
  %16 = getelementptr inbounds nuw i8, ptr %0, i64 128
  %17 = load ptr, ptr %16, align 8, !tbaa !12
  %18 = sext i32 %3 to i64
  %19 = getelementptr ptr, ptr %17, i64 %18
  %20 = getelementptr i8, ptr %19, i64 -8
  %21 = load ptr, ptr %20, align 8, !tbaa !13
  br label %59

22:                                               ; preds = %14
  %23 = getelementptr inbounds nuw i8, ptr %0, i64 128
  %24 = load ptr, ptr %23, align 8, !tbaa !12
  %25 = sext i32 %3 to i64
  %26 = getelementptr ptr, ptr %24, i64 %25
  %27 = getelementptr i8, ptr %26, i64 -8
  %28 = load ptr, ptr %27, align 8, !tbaa !13
  %29 = ptrtoint ptr %28 to i64
  %30 = xor i64 %29, 1
  %31 = inttoptr i64 %30 to ptr
  br label %59

32:                                               ; preds = %14, %12
  %indvars.iv.next = add nsw i64 %indvars.iv, -1
  %33 = getelementptr inbounds [5 x i32], ptr @Kit_TruthToCloud5_rec.uVars, i64 0, i64 %indvars.iv.next
  %34 = load i32, ptr %33, align 4, !tbaa !14
  %35 = xor i32 %34, -1
  %36 = and i32 %.tr53, %35
  %37 = and i32 %34, %.tr53
  %38 = trunc nsw i64 %indvars.iv.next to i32
  %39 = shl nuw i32 1, %38
  %40 = shl i32 %36, %39
  %41 = or i32 %40, %36
  %42 = lshr i32 %37, %39
  %43 = or i32 %42, %37
  %44 = icmp eq i32 %41, %43
  br i1 %44, label %tailrecurse, label %45

45:                                               ; preds = %32
  %46 = trunc nsw i64 %indvars.iv to i32
  %47 = xor i32 %43, %41
  %48 = icmp eq i32 %47, -1
  %49 = tail call ptr @Kit_TruthToCloud5_rec(ptr noundef %0, i32 noundef %41, i32 noundef %38, i32 noundef %3)
  br i1 %48, label %50, label %54

50:                                               ; preds = %45
  %51 = ptrtoint ptr %49 to i64
  %52 = xor i64 %51, 1
  %53 = inttoptr i64 %52 to ptr
  br label %56

54:                                               ; preds = %45
  %55 = tail call ptr @Kit_TruthToCloud5_rec(ptr noundef %0, i32 noundef %43, i32 noundef %38, i32 noundef %3)
  br label %56

56:                                               ; preds = %54, %50
  %.0 = phi ptr [ %53, %50 ], [ %55, %54 ]
  %57 = sub nsw i32 %3, %46
  %58 = tail call ptr @Cloud_MakeNode(ptr noundef %0, i32 noundef %57, ptr noundef %.0, ptr noundef %49) #8
  br label %59

59:                                               ; preds = %56, %22, %15, %9, %6
  %.048 = phi ptr [ %8, %6 ], [ %11, %9 ], [ %21, %15 ], [ %31, %22 ], [ %58, %56 ]
  ret ptr %.048
}